target datalayout = "e-m:e-p270:32:32-p271:32:32-p272:64:64-i64:64-i128:128-f80:128-n8:16:32:64-S128"
target triple = "x86_64-pc-linux-gnu"

; Function Attrs: inlinehint nounwind uwtable
define internal i32 @pg_euc_mblen(ptr noundef %0) #0 {
  %2 = alloca ptr, align 8
  %3 = alloca i32, align 4
  store ptr %0, ptr %2, align 8
  call void @llvm.lifetime.start.p0(i64 4, ptr %3) #7
  %4 = load ptr, ptr %2, align 8
  %5 = load i8, ptr %4, align 1
  %6 = zext i8 %5 to i32
  %7 = icmp eq i32 %6, 142
  br i1 %7, label %8, label %9

8:                                                ; preds = %1
  store i32 2, ptr %3, align 4
  br label %25

9:                                                ; preds = %1
  %10 = load ptr, ptr %2, align 8
  %11 = load i8, ptr %10, align 1
  %12 = zext i8 %11 to i32
  %13 = icmp eq i32 %12, 143
  br i1 %13, label %14, label %15

14:                                               ; preds = %9
  store i32 3, ptr %3, align 4
  br label %24

15:                                               ; preds = %9
  %16 = load ptr, ptr %2, align 8
  %17 = load i8, ptr %16, align 1
  %18 = zext i8 %17 to i32
  %19 = and i32 %18, 128
  %20 = icmp ne i32 %19, 0
  br i1 %20, label %21, label %22

21:                                               ; preds = %15
  store i32 2, ptr %3, align 4
  br label %23

22:                                               ; preds = %15
  store i32 1, ptr %3, align 4
  br label %23

23:                                               ; preds = %22, %21
  br label %24

24:                                               ; preds = %23, %14
  br label %25

25:                                               ; preds = %24, %8
  %26 = load i32, ptr %3, align 4
  call void @llvm.lifetime.end.p0(i64 4, ptr %3) #7
  ret i32 %26
}

; Function Attrs: nounwind uwtable
define internal i32 @pg_johab_mblen(ptr noundef %0) #1 {
  %2 = alloca ptr, align 8
  store ptr %0, ptr %2, align 8
  %3 = load ptr, ptr %2, align 8
  %4 = call i32 @pg_euc_mblen(ptr noundef %3)
  ret i32 %4
}

; Function Attrs: nounwind uwtable
define internal i32 @pg_johab_verifychar(ptr noundef %0, i32 noundef %1) #1 {
  %3 = alloca i32, align 4
  %4 = alloca ptr, align 8
  %5 = alloca i32, align 4
  %6 = alloca i32, align 4
  %7 = alloca i32, align 4
  %8 = alloca i8, align 1
  %9 = alloca i32, align 4
  store ptr %0, ptr %4, align 8
  store i32 %1, ptr %5, align 4
  call void @llvm.lifetime.start.p0(i64 4, ptr %6) #7
  call void @llvm.lifetime.start.p0(i64 4, ptr %7) #7
  call void @llvm.lifetime.start.p0(i64 1, ptr %8) #7
  %10 = load ptr, ptr %4, align 8
  %11 = call i32 @pg_johab_mblen(ptr noundef %10)
  store i32 %11, ptr %7, align 4
  store i32 %11, ptr %6, align 4
  %12 = load i32, ptr %5, align 4
  %13 = load i32, ptr %6, align 4
  %14 = icmp slt i32 %12, %13
  br i1 %14, label %15, label %16

15:                                               ; preds = %2
  store i32 -1, ptr %3, align 4
  store i32 1, ptr %9, align 4
  br label %44

16:                                               ; preds = %2
  %17 = load ptr, ptr %4, align 8
  %18 = load i8, ptr %17, align 1
  %19 = zext i8 %18 to i32
  %20 = and i32 %19, 128
  %21 = icmp ne i32 %20, 0
  br i1 %21, label %24, label %22

22:                                               ; preds = %16
  %23 = load i32, ptr %7, align 4
  store i32 %23, ptr %3, align 4
  store i32 1, ptr %9, align 4
  br label %44

24:                                               ; preds = %16
  br label %25

25:                                               ; preds = %41, %24
  %26 = load i32, ptr %6, align 4
  %27 = add i32 %26, -1
  store i32 %27, ptr %6, align 4
  %28 = icmp sgt i32 %27, 0
  br i1 %28, label %29, label %42

29:                                               ; preds = %25
  %30 = load ptr, ptr %4, align 8
  %31 = getelementptr inbounds nuw i8, ptr %30, i32 1
  store ptr %31, ptr %4, align 8
  %32 = load i8, ptr %31, align 1
  store i8 %32, ptr %8, align 1
  %33 = load i8, ptr %8, align 1
  %34 = zext i8 %33 to i32
  %35 = icmp sge i32 %34, 161
  br i1 %35, label %36, label %40

36:                                               ; preds = %29
  %37 = load i8, ptr %8, align 1
  %38 = zext i8 %37 to i32
  %39 = icmp sle i32 %38, 254
  br i1 %39, label %41, label %40

40:                                               ; preds = %36, %29
  store i32 -1, ptr %3, align 4
  store i32 1, ptr %9, align 4
  br label %44

41:                                               ; preds = %36
  br label %25, !llvm.loop !31

42:                                               ; preds = %25
  %43 = load i32, ptr %7, align 4
  store i32 %43, ptr %3, align 4
  store i32 1, ptr %9, align 4
  br label %44

44:                                               ; preds = %42, %40, %22, %15
  call void @llvm.lifetime.end.p0(i64 1, ptr %8) #7
  call void @llvm.lifetime.end.p0(i64 4, ptr %7) #7
  call void @llvm.lifetime.end.p0(i64 4, ptr %6) #7
  %45 = load i32, ptr %3, align 4
  ret i32 %45
}