; Function Attrs: nofree norecurse nosync nounwind memory(argmem: read) uwtable
define internal range(i32 -1, 4) i32 @pg_johab_verifychar(ptr noundef readonly captures(none) %0, i32 noundef %1) #5 {
  %.val.i = load i8, ptr %0, align 1
  switch i8 %.val.i, label %4 [
    i8 -114, label %pg_johab_mblen.exit
    i8 -113, label %3
  ]

3:                                                ; preds = %2
  br label %pg_johab_mblen.exit

4:                                                ; preds = %2
  %.not.i.i = icmp sgt i8 %.val.i, -1
  %..i.i = select i1 %.not.i.i, i32 1, i32 2
  br label %pg_johab_mblen.exit

pg_johab_mblen.exit:                              ; preds = %2, %3, %4
  %.0.i.i = phi i32 [ 3, %3 ], [ 2, %2 ], [ %..i.i, %4 ]
  %5 = icmp slt i32 %1, %.0.i.i
  br i1 %5, label %.loopexit, label %6

6:                                                ; preds = %pg_johab_mblen.exit
  %.not = icmp sgt i8 %.val.i, -1
  br i1 %.not, label %.loopexit, label %.preheader

.preheader:                                       ; preds = %6, %8
  %.013 = phi i32 [ %9, %8 ], [ %.0.i.i, %6 ]
  %.012 = phi ptr [ %10, %8 ], [ %0, %6 ]
  %7 = icmp sgt i32 %.013, 1
  br i1 %7, label %8, label %.loopexit

8:                                                ; preds = %.preheader
  %9 = add nsw i32 %.013, -1
  %10 = getelementptr inbounds nuw i8, ptr %.012, i64 1
  %11 = load i8, ptr %10, align 1
  %12 = add i8 %11, 95
  %or.cond = icmp ult i8 %12, 94
  br i1 %or.cond, label %.preheader, label %.loopexit, !llvm.loop !25

.loopexit:                                        ; preds = %.preheader, %8, %6, %pg_johab_mblen.exit
  %.0 = phi i32 [ -1, %pg_johab_mblen.exit ], [ %.0.i.i, %6 ], [ %.0.i.i, %.preheader ], [ -1, %8 ]
  ret i32 %.0
}